; Function Attrs: mustprogress uwtable
define hidden noundef nonnull align 8 dereferenceable(8) ptr @_ZN4perf8TestBase14_declareHelper3outERKN2cv17_InputOutputArrayES5_S5_NS0_10WarmUpTypeE(ptr noundef nonnull readonly returned align 8 dereferenceable(8) %0, ptr noundef nonnull align 8 dereferenceable(24) %1, ptr noundef nonnull align 8 dereferenceable(24) %2, ptr noundef nonnull align 8 dereferenceable(24) %3, i32 noundef %4) local_unnamed_addr #5 align 2 {
  %6 = load ptr, ptr %0, align 8, !tbaa !289
  %7 = getelementptr inbounds nuw i8, ptr %6, i64 72
  %8 = load ptr, ptr %7, align 8, !tbaa !344
  %9 = getelementptr inbounds nuw i8, ptr %6, i64 80
  %10 = load ptr, ptr %9, align 8, !tbaa !344
  %11 = icmp eq ptr %8, %10
  br i1 %11, label %12, label %18

12:                                               ; preds = %5
  %13 = getelementptr inbounds nuw i8, ptr %6, i64 40
  tail call void @_ZN4perf8TestBase12declareArrayERSt6vectorISt4pairIiN2cv5Size_IiEEESaIS6_EERKNS3_17_InputOutputArrayENS0_10WarmUpTypeE(ptr noundef nonnull align 8 dereferenceable(24) %13, ptr noundef nonnull align 8 dereferenceable(24) %1, i32 noundef %4)
  %14 = load ptr, ptr %0, align 8, !tbaa !289
  %15 = getelementptr inbounds nuw i8, ptr %14, i64 40
  tail call void @_ZN4perf8TestBase12declareArrayERSt6vectorISt4pairIiN2cv5Size_IiEEESaIS6_EERKNS3_17_InputOutputArrayENS0_10WarmUpTypeE(ptr noundef nonnull align 8 dereferenceable(24) %15, ptr noundef nonnull align 8 dereferenceable(24) %2, i32 noundef %4)
  %16 = load ptr, ptr %0, align 8, !tbaa !289
  %17 = getelementptr inbounds nuw i8, ptr %16, i64 40
  tail call void @_ZN4perf8TestBase12declareArrayERSt6vectorISt4pairIiN2cv5Size_IiEEESaIS6_EERKNS3_17_InputOutputArrayENS0_10WarmUpTypeE(ptr noundef nonnull align 8 dereferenceable(24) %17, ptr noundef nonnull align 8 dereferenceable(24) %3, i32 noundef %4)
  br label %18

18:                                               ; preds = %5, %12
  ret ptr %0
}